; Function Attrs: nounwind uwtable
define hidden range(i32 0, 2) i32 @BN_print_fp(ptr noundef %0, ptr noundef %1) local_unnamed_addr #0 {
  %3 = tail call ptr @BIO_s_file() #9
  %4 = tail call ptr @BIO_new(ptr noundef %3) #9
  %5 = icmp eq ptr %4, null
  br i1 %5, label %10, label %6

6:                                                ; preds = %2
  %7 = tail call i32 @BIO_set_fp(ptr noundef nonnull %4, ptr noundef %0, i32 noundef 0) #9
  %8 = tail call i32 @BN_print(ptr noundef nonnull %4, ptr noundef %1)
  %9 = tail call i32 @BIO_free(ptr noundef nonnull %4) #9
  br label %10

10:                                               ; preds = %2, %6
  %.0 = phi i32 [ %8, %6 ], [ 0, %2 ]
  ret i32 %.0
}